; Function Attrs: nounwind uwtable
define void @dtgtk_gradient_slider_multivalue_set_resetvalues(ptr noundef %0, ptr noundef readonly captures(none) %1) local_unnamed_addr #0 {
  %.not = icmp eq ptr %0, null
  br i1 %.not, label %8, label %.preheader, !prof !45

.preheader:                                       ; preds = %2
  %3 = getelementptr inbounds nuw i8, ptr %0, i64 56
  %4 = load i32, ptr %3, align 8, !tbaa !16
  %5 = icmp sgt i32 %4, 0
  br i1 %5, label %.lr.ph, label %._crit_edge

.lr.ph:                                           ; preds = %.preheader
  %6 = getelementptr inbounds nuw i8, ptr %0, i64 344
  %7 = getelementptr inbounds nuw i8, ptr %0, i64 144
  br label %10

8:                                                ; preds = %2
  tail call void @g_return_if_fail_warning(ptr noundef null, ptr noundef nonnull @__func__.dtgtk_gradient_slider_multivalue_set_resetvalues, ptr noundef nonnull @.str.1) #14
  br label %21

._crit_edge:                                      ; preds = %10, %.preheader
  %9 = getelementptr inbounds nuw i8, ptr %0, i64 320
  store i32 1, ptr %9, align 8, !tbaa !35
  br label %21

10:                                               ; preds = %.lr.ph, %10
  %indvars.iv = phi i64 [ 0, %.lr.ph ], [ %indvars.iv.next, %10 ]
  %11 = load ptr, ptr %6, align 8, !tbaa !34
  %12 = getelementptr inbounds nuw double, ptr %1, i64 %indvars.iv
  %13 = load double, ptr %12, align 8, !tbaa !37
  %14 = fptrunc reassoc nsz arcp contract afn double %13 to float
  %15 = tail call reassoc nsz arcp contract afn float %11(ptr noundef nonnull %0, float noundef %14, i32 noundef 1) #14
  %16 = fpext reassoc nsz arcp contract afn float %15 to double
  %17 = getelementptr inbounds nuw [10 x double], ptr %7, i64 0, i64 %indvars.iv
  store double %16, ptr %17, align 8, !tbaa !37
  %indvars.iv.next = add nuw nsw i64 %indvars.iv, 1
  %18 = load i32, ptr %3, align 8, !tbaa !16
  %19 = sext i32 %18 to i64
  %20 = icmp slt i64 %indvars.iv.next, %19
  br i1 %20, label %10, label %._crit_edge

21:                                               ; preds = %._crit_edge, %8
  ret void
}